; Function Attrs: nofree null_pointer_is_valid sspstrong uwtable
define internal void @decode_temp_meas_tolerance(ptr noundef %0, i16 noundef zeroext %1) #1 {
  %3 = icmp ugt i16 %1, 2048
  br i1 %3, label %4, label %6

4:                                                ; preds = %2
  %5 = tail call i32 (ptr, i64, i32, i64, ptr, ...) @__snprintf_chk(ptr noundef %0, i64 noundef 240, i32 noundef 2, i64 noundef -1, ptr noundef nonnull @.str.104)
  br label %10

6:                                                ; preds = %2
  %7 = udiv i16 %1, 100
  %.zext = zext nneg i16 %7 to i32
  %8 = urem i16 %1, 100
  %.zext7 = zext nneg i16 %8 to i32
  %9 = tail call i32 (ptr, i64, i32, i64, ptr, ...) @__snprintf_chk(ptr noundef %0, i64 noundef 240, i32 noundef 2, i64 noundef -1, ptr noundef nonnull @.str.118, i32 noundef %.zext, i32 noundef %.zext7)
  br label %10

10:                                               ; preds = %6, %4
  ret void
}